target datalayout = "e-m:e-p270:32:32-p271:32:32-p272:64:64-i64:64-i128:128-f80:128-n8:16:32:64-S128"
target triple = "x86_64-pc-linux-gnu"

%struct.sockaddr_storage = type { i16, [118 x i8], i64 }
%struct.srun_info_t = type { ptr, %struct.sockaddr_storage, %struct.sockaddr_storage, i32, i16 }

; Function Attrs: nounwind uwtable
define dso_local void @srun_info_destroy(ptr noundef %0) #0 {
  %2 = alloca ptr, align 8
  store ptr %0, ptr %2, align 8
  %3 = load ptr, ptr %2, align 8
  %4 = getelementptr inbounds nuw %struct.srun_info_t, ptr %3, i32 0, i32 0
  call void @slurm_xfree(ptr noundef %4)
  call void @slurm_xfree(ptr noundef %2)
  ret void
}

; Function Attrs: nounwind uwtable
define internal void @_srun_info_destructor(ptr noundef %0) #0 {
  %2 = alloca ptr, align 8
  %3 = alloca ptr, align 8
  store ptr %0, ptr %2, align 8
  call void @llvm.lifetime.start.p0(i64 8, ptr %3) #9
  %4 = load ptr, ptr %2, align 8
  store ptr %4, ptr %3, align 8
  %5 = load ptr, ptr %3, align 8
  call void @srun_info_destroy(ptr noundef %5)
  call void @llvm.lifetime.end.p0(i64 8, ptr %3) #9
  ret void
}