; Function Attrs: nounwind uwtable
define internal void @_srun_info_destructor(ptr noundef %0) #0 {
  %2 = alloca ptr, align 8
  call void @llvm.lifetime.start.p0(i64 8, ptr nonnull %2)
  store ptr %0, ptr %2, align 8
  tail call void @slurm_xfree(ptr noundef %0) #9
  call void @slurm_xfree(ptr noundef nonnull %2) #9
  call void @llvm.lifetime.end.p0(i64 8, ptr nonnull %2)
  ret void
}